; Function Attrs: mustprogress uwtable
define void @_ZN3gmx15makeGpuIdStringB5cxx11ERKSt6vectorIiSaIiEEi(ptr dead_on_unwind noalias writable sret(%"class.std::__cxx11::basic_string") align 8 %0, ptr noundef nonnull readonly align 8 captures(none) dereferenceable(24) %1, i32 noundef %2) local_unnamed_addr #0 personality ptr @__gxx_personality_v0 {
  %4 = alloca %"class.std::vector", align 8
  %5 = alloca %"class.gmx::StringFormatter", align 8
  call void @llvm.lifetime.start.p0(i64 24, ptr nonnull %4) #20
  %6 = load ptr, ptr %1, align 8, !tbaa !9
  %7 = getelementptr inbounds nuw i8, ptr %1, i64 8
  %8 = load ptr, ptr %7, align 8, !tbaa !3
  %9 = ptrtoint ptr %8 to i64
  %10 = ptrtoint ptr %6 to i64
  %11 = sub i64 %9, %10
  %12 = getelementptr inbounds nuw i8, ptr %6, i64 %11
  %13 = sext i32 %2 to i64
  call void @_ZN3gmx10makeGpuIdsENS_8ArrayRefIKiEEm(ptr dead_on_unwind nonnull writable sret(%"class.std::vector") align 8 %4, ptr %6, ptr %12, i64 noundef %13)
  call void @llvm.lifetime.start.p0(i64 8, ptr nonnull %5) #20
  store ptr @.str.5, ptr %5, align 8, !tbaa !61
  %14 = load ptr, ptr %4, align 8, !tbaa !60, !noalias !67
  %15 = getelementptr inbounds nuw i8, ptr %4, i64 8
  %16 = load ptr, ptr %15, align 8, !tbaa !60, !noalias !67
  invoke void @_ZN3gmx13formatAndJoinIN9__gnu_cxx17__normal_iteratorIPKiSt6vectorIiSaIiEEEENS_15StringFormatterEEENSt7__cxx1112basic_stringIcSt11char_traitsIcESaIcEEET_SG_PKcRKT0_(ptr dead_on_unwind writable sret(%"class.std::__cxx11::basic_string") align 8 %0, ptr %14, ptr %16, ptr noundef nonnull @.str.4, ptr noundef nonnull align 8 dereferenceable(8) %5)
          to label %_ZN3gmx13formatAndJoinISt6vectorIiSaIiEENS_15StringFormatterEEENSt7__cxx1112basic_stringIcSt11char_traitsIcESaIcEEERKT_PKcRKT0_.exit unwind label %23

_ZN3gmx13formatAndJoinISt6vectorIiSaIiEENS_15StringFormatterEEENSt7__cxx1112basic_stringIcSt11char_traitsIcESaIcEEERKT_PKcRKT0_.exit: ; preds = %3
  call void @llvm.lifetime.end.p0(i64 8, ptr nonnull %5) #20
  %.not.i.i.i = icmp eq ptr %14, null
  br i1 %.not.i.i.i, label %_ZNSt6vectorIiSaIiEED2Ev.exit, label %17

17:                                               ; preds = %_ZN3gmx13formatAndJoinISt6vectorIiSaIiEENS_15StringFormatterEEENSt7__cxx1112basic_stringIcSt11char_traitsIcESaIcEEERKT_PKcRKT0_.exit
  %18 = getelementptr inbounds nuw i8, ptr %4, i64 16
  %19 = load ptr, ptr %18, align 8, !tbaa !25
  %20 = ptrtoint ptr %19 to i64
  %21 = ptrtoint ptr %14 to i64
  %22 = sub i64 %20, %21
  call void @_ZdlPvm(ptr noundef nonnull %14, i64 noundef %22) #22
  br label %_ZNSt6vectorIiSaIiEED2Ev.exit

_ZNSt6vectorIiSaIiEED2Ev.exit:                    ; preds = %_ZN3gmx13formatAndJoinISt6vectorIiSaIiEENS_15StringFormatterEEENSt7__cxx1112basic_stringIcSt11char_traitsIcESaIcEEERKT_PKcRKT0_.exit, %17
  call void @llvm.lifetime.end.p0(i64 24, ptr nonnull %4) #20
  ret void

23:                                               ; preds = %3
  %24 = landingpad { ptr, i32 }
          cleanup
  call void @llvm.lifetime.end.p0(i64 8, ptr nonnull %5) #20
  %.not.i.i.i3 = icmp eq ptr %14, null
  br i1 %.not.i.i.i3, label %_ZNSt6vectorIiSaIiEED2Ev.exit4, label %25

25:                                               ; preds = %23
  %26 = getelementptr inbounds nuw i8, ptr %4, i64 16
  %27 = load ptr, ptr %26, align 8, !tbaa !25
  %28 = ptrtoint ptr %27 to i64
  %29 = ptrtoint ptr %14 to i64
  %30 = sub i64 %28, %29
  call void @_ZdlPvm(ptr noundef nonnull %14, i64 noundef %30) #22
  br label %_ZNSt6vectorIiSaIiEED2Ev.exit4

_ZNSt6vectorIiSaIiEED2Ev.exit4:                   ; preds = %23, %25
  call void @llvm.lifetime.end.p0(i64 24, ptr nonnull %4) #20
  resume { ptr, i32 } %24
}